; Function Attrs: mustprogress nounwind uwtable
define hidden void @_ZN18ObjectSynchronizer9notifyallE6HandleP10JavaThread(ptr nocapture readonly %0, ptr noundef %1) local_unnamed_addr #0 align 2 {
  %3 = load ptr, ptr %0, align 8
  %4 = load volatile i64, ptr %3, align 8
  %5 = load i32, ptr @LockingMode, align 4
  switch i32 %5, label %_ZNK6HandleclEv.exit7.thread [
    i32 2, label %6
    i32 1, label %22
  ]

6:                                                ; preds = %2
  %7 = and i64 %4, 3
  %8 = icmp eq i64 %7, 0
  br i1 %8, label %_ZNK6HandleclEv.exit, label %_ZNK6HandleclEv.exit7.thread13

_ZNK6HandleclEv.exit:                             ; preds = %6
  %9 = getelementptr inbounds i8, ptr %1, i64 1720
  %10 = load i32, ptr %9, align 8
  %11 = load i32, ptr @_ZN9LockStack22lock_stack_base_offsetE, align 4
  %12 = sub i32 %10, %11
  %13 = getelementptr inbounds i8, ptr %1, i64 1736
  %14 = lshr i32 %12, 3
  %15 = zext nneg i32 %14 to i64
  br label %16

16:                                               ; preds = %18, %_ZNK6HandleclEv.exit
  %indvars.iv.i = phi i64 [ %indvars.iv.next.i, %18 ], [ %15, %_ZNK6HandleclEv.exit ]
  %17 = icmp sgt i64 %indvars.iv.i, 0
  br i1 %17, label %18, label %_ZNK6HandleclEv.exit7.thread13

18:                                               ; preds = %16
  %indvars.iv.next.i = add nsw i64 %indvars.iv.i, -1
  %19 = getelementptr inbounds [8 x ptr], ptr %13, i64 0, i64 %indvars.iv.next.i
  %20 = load ptr, ptr %19, align 8
  %21 = icmp eq ptr %20, %3
  br i1 %21, label %_ZNK9LockStack8containsEP7oopDesc.exit.thread, label %16, !llvm.loop !16

22:                                               ; preds = %2
  %23 = and i64 %4, 3
  %24 = icmp eq i64 %23, 0
  br i1 %24, label %25, label %_ZNK6HandleclEv.exit7.thread

25:                                               ; preds = %22
  %26 = inttoptr i64 %4 to ptr
  %27 = tail call noundef zeroext i1 @_ZNK10JavaThread13is_lock_ownedEPh(ptr noundef nonnull align 8 dereferenceable(1800) %1, ptr noundef %26) #18
  br i1 %27, label %_ZNK9LockStack8containsEP7oopDesc.exit.thread, label %_ZNK6HandleclEv.exit7

_ZNK6HandleclEv.exit7:                            ; preds = %25
  %.pr.pre = load i32, ptr @LockingMode, align 4
  %.pre = load ptr, ptr %0, align 8
  %28 = icmp eq i32 %.pr.pre, 2
  br i1 %28, label %_ZNK6HandleclEv.exit7.thread13, label %_ZNK6HandleclEv.exit7.thread

_ZNK6HandleclEv.exit7.thread13:                   ; preds = %16, %6, %_ZNK6HandleclEv.exit7
  %29 = phi ptr [ %.pre, %_ZNK6HandleclEv.exit7 ], [ %3, %6 ], [ %3, %16 ]
  %30 = load ptr, ptr %1, align 8
  %31 = getelementptr inbounds i8, ptr %30, i64 56
  %32 = load ptr, ptr %31, align 8
  %33 = tail call noundef zeroext i1 %32(ptr noundef nonnull align 8 dereferenceable(888) %1) #18
  br i1 %33, label %34, label %_ZNK6HandleclEv.exit7.thread

34:                                               ; preds = %_ZNK6HandleclEv.exit7.thread13
  %35 = tail call noundef ptr @_ZN18ObjectSynchronizer12inflate_implEP10JavaThreadP7oopDescNS_12InflateCauseE(ptr noundef nonnull %1, ptr noundef %29, i32 noundef 3)
  br label %_ZN18ObjectSynchronizer7inflateEP6ThreadP7oopDescNS_12InflateCauseE.exit

_ZNK6HandleclEv.exit7.thread:                     ; preds = %22, %2, %_ZNK6HandleclEv.exit7.thread13, %_ZNK6HandleclEv.exit7
  %36 = phi ptr [ %29, %_ZNK6HandleclEv.exit7.thread13 ], [ %.pre, %_ZNK6HandleclEv.exit7 ], [ %3, %2 ], [ %3, %22 ]
  %37 = tail call noundef ptr @_ZN18ObjectSynchronizer12inflate_implEP10JavaThreadP7oopDescNS_12InflateCauseE(ptr noundef null, ptr noundef %36, i32 noundef 3)
  br label %_ZN18ObjectSynchronizer7inflateEP6ThreadP7oopDescNS_12InflateCauseE.exit

_ZN18ObjectSynchronizer7inflateEP6ThreadP7oopDescNS_12InflateCauseE.exit: ; preds = %34, %_ZNK6HandleclEv.exit7.thread
  %.0.i = phi ptr [ %35, %34 ], [ %37, %_ZNK6HandleclEv.exit7.thread ]
  tail call void @_ZN13ObjectMonitor9notifyAllEP10JavaThread(ptr noundef nonnull align 8 dereferenceable(200) %.0.i, ptr noundef %1) #18
  br label %_ZNK9LockStack8containsEP7oopDesc.exit.thread

_ZNK9LockStack8containsEP7oopDesc.exit.thread:    ; preds = %18, %_ZN18ObjectSynchronizer7inflateEP6ThreadP7oopDescNS_12InflateCauseE.exit, %25
  ret void
}